; Function Attrs: mustprogress nounwind uwtable
define hidden void @_ZN12opencv_caffe16V0LayerParameterD2Ev(ptr noundef nonnull align 8 dereferenceable(256) %0) unnamed_addr #6 align 2 personality ptr @__gxx_personality_v0 {
  %2 = getelementptr inbounds nuw i8, ptr %0, i64 8
  %3 = load i64, ptr %2, align 8, !tbaa !8
  %4 = and i64 %3, 1
  %.not.i = icmp eq i64 %4, 0
  %5 = and i64 %3, -4
  %6 = inttoptr i64 %5 to ptr
  br i1 %.not.i, label %_ZNK6google8protobuf11MessageLite21GetArenaForAllocationEv.exit, label %7, !prof !20

7:                                                ; preds = %1
  %8 = load ptr, ptr %6, align 8, !tbaa !21
  br label %_ZNK6google8protobuf11MessageLite21GetArenaForAllocationEv.exit

_ZNK6google8protobuf11MessageLite21GetArenaForAllocationEv.exit: ; preds = %7, %1
  %.0.i.i = phi ptr [ %8, %7 ], [ %6, %1 ]
  %.not = icmp eq ptr %.0.i.i, null
  br i1 %.not, label %9, label %_ZN6google8protobuf8internal16InternalMetadata6DeleteINS0_15UnknownFieldSetEEEvv.exit

9:                                                ; preds = %_ZNK6google8protobuf11MessageLite21GetArenaForAllocationEv.exit
  invoke void @_ZN12opencv_caffe16V0LayerParameter10SharedDtorEv(ptr noundef nonnull align 8 dereferenceable(256) %0)
          to label %10 unwind label %36

10:                                               ; preds = %9
  %11 = load i64, ptr %2, align 8, !tbaa !8
  %12 = and i64 %11, 1
  %.not.i1 = icmp eq i64 %12, 0
  br i1 %.not.i1, label %_ZN6google8protobuf8internal16InternalMetadata6DeleteINS0_15UnknownFieldSetEEEvv.exit, label %13

13:                                               ; preds = %10
  invoke void @_ZN6google8protobuf8internal16InternalMetadata21DeleteOutOfLineHelperINS0_15UnknownFieldSetEEEvv(ptr noundef nonnull align 8 dereferenceable(8) %2)
          to label %_ZN6google8protobuf8internal16InternalMetadata6DeleteINS0_15UnknownFieldSetEEEvv.exit unwind label %36

_ZN6google8protobuf8internal16InternalMetadata6DeleteINS0_15UnknownFieldSetEEEvv.exit: ; preds = %10, %13, %_ZNK6google8protobuf11MessageLite21GetArenaForAllocationEv.exit
  %14 = getelementptr inbounds nuw i8, ptr %0, i64 72
  tail call void @_ZN6google8protobuf13RepeatedFieldIfED1Ev(ptr noundef nonnull align 8 dereferenceable(16) %14) #25
  %15 = getelementptr inbounds nuw i8, ptr %0, i64 56
  tail call void @_ZN6google8protobuf13RepeatedFieldIfED1Ev(ptr noundef nonnull align 8 dereferenceable(16) %15) #25
  %16 = getelementptr inbounds nuw i8, ptr %0, i64 32
  %17 = getelementptr inbounds nuw i8, ptr %0, i64 48
  %18 = load ptr, ptr %17, align 8, !tbaa !91
  %.not.i.i = icmp ne ptr %18, null
  %19 = load ptr, ptr %16, align 8
  %20 = icmp eq ptr %19, null
  %21 = select i1 %.not.i.i, i1 %20, i1 false
  br i1 %21, label %22, label %_ZN6google8protobuf16RepeatedPtrFieldIN12opencv_caffe9BlobProtoEED2Ev.exit

22:                                               ; preds = %_ZN6google8protobuf8internal16InternalMetadata6DeleteINS0_15UnknownFieldSetEEEvv.exit
  invoke void @_ZN6google8protobuf8internal20RepeatedPtrFieldBase13DestroyProtosEv(ptr noundef nonnull align 8 dereferenceable(24) %16)
          to label %_ZN6google8protobuf16RepeatedPtrFieldIN12opencv_caffe9BlobProtoEED2Ev.exit unwind label %23

23:                                               ; preds = %22
  %24 = landingpad { ptr, i32 }
          catch ptr null
  %25 = extractvalue { ptr, i32 } %24, 0
  tail call void @__clang_call_terminate(ptr %25) #27
  unreachable

_ZN6google8protobuf16RepeatedPtrFieldIN12opencv_caffe9BlobProtoEED2Ev.exit: ; preds = %_ZN6google8protobuf8internal16InternalMetadata6DeleteINS0_15UnknownFieldSetEEEvv.exit, %22
  store ptr getelementptr inbounds nuw inrange(-16, 104) (i8, ptr @_ZTVN6google8protobuf11MessageLiteE, i64 16), ptr %0, align 8, !tbaa !11
  %26 = load i64, ptr %2, align 8, !tbaa !8
  %27 = and i64 %26, 2
  %.not.i.i2 = icmp eq i64 %27, 0
  br i1 %.not.i.i2, label %_ZN6google8protobuf11MessageLiteD2Ev.exit, label %28

28:                                               ; preds = %_ZN6google8protobuf16RepeatedPtrFieldIN12opencv_caffe9BlobProtoEED2Ev.exit
  %29 = and i64 %26, 1
  %.not1.i.i = icmp eq i64 %29, 0
  %30 = and i64 %26, -4
  %31 = inttoptr i64 %30 to ptr
  br i1 %.not1.i.i, label %_ZNK6google8protobuf8internal16InternalMetadata5arenaEv.exit.i.i, label %32, !prof !20

32:                                               ; preds = %28
  %33 = load ptr, ptr %31, align 8, !tbaa !21
  br label %_ZNK6google8protobuf8internal16InternalMetadata5arenaEv.exit.i.i

_ZNK6google8protobuf8internal16InternalMetadata5arenaEv.exit.i.i: ; preds = %32, %28
  %.0.i.i.i = phi ptr [ %33, %32 ], [ %31, %28 ]
  %34 = icmp eq ptr %.0.i.i.i, null
  br i1 %34, label %_ZN6google8protobuf11MessageLiteD2Ev.exit, label %35

35:                                               ; preds = %_ZNK6google8protobuf8internal16InternalMetadata5arenaEv.exit.i.i
  tail call void @_ZN6google8protobuf8internal15ThreadSafeArenaD1Ev(ptr noundef nonnull align 8 dereferenceable(32) %.0.i.i.i) #25
  tail call void @_ZdlPv(ptr noundef nonnull %.0.i.i.i) #26
  br label %_ZN6google8protobuf11MessageLiteD2Ev.exit

_ZN6google8protobuf11MessageLiteD2Ev.exit:        ; preds = %_ZN6google8protobuf16RepeatedPtrFieldIN12opencv_caffe9BlobProtoEED2Ev.exit, %_ZNK6google8protobuf8internal16InternalMetadata5arenaEv.exit.i.i, %35
  ret void

36:                                               ; preds = %13, %9
  %37 = landingpad { ptr, i32 }
          catch ptr null
  %38 = extractvalue { ptr, i32 } %37, 0
  tail call void @__clang_call_terminate(ptr %38) #27
  unreachable
}